(lp1
(lp2
(lp3
F-3.1693571251104022
aF-1.4642091864245872
aF-3.1352854106401824
aa(lp4
F-2.2332692296578602
aF2.9442578140693736
aF1.979208783831875
aa(lp5
F0.34980061210629892
aF0.16845459218028375
aF-0.59740402679380922
aaa(lp6
(lp7
F-2.8589464780063456
aa(lp8
F-2.7987128972792856
aa(lp9
F2.8270541691401498
aaa.